; Function Attrs: nounwind uwtable
define dso_local range(i32 0, -2147483648) i32 @bb_g_job_validate2(ptr noundef %0, ptr noundef %1) local_unnamed_addr #0 {
  %3 = alloca %struct.timeval, align 8
  %4 = alloca %struct.timeval, align 8
  %5 = alloca [20 x i8], align 16
  %6 = alloca i64, align 8
  call void @llvm.lifetime.start.p0(i64 16, ptr nonnull %3) #11
  call void @llvm.lifetime.start.p0(i64 16, ptr nonnull %4) #11
  call void @llvm.lifetime.start.p0(i64 20, ptr nonnull %5) #11
  call void @llvm.memset.p0.i64(ptr noundef nonnull align 16 dereferenceable(20) %5, i8 0, i64 20, i1 false)
  call void @llvm.lifetime.start.p0(i64 8, ptr nonnull %6) #11
  %7 = call i32 @gettimeofday(ptr noundef nonnull %3, ptr noundef null) #11
  %8 = tail call i32 @pthread_mutex_lock(ptr noundef nonnull @g_context_lock) #11
  %.not = icmp eq i32 %8, 0
  br i1 %.not, label %.preheader, label %11

.preheader:                                       ; preds = %2
  %9 = load i32, ptr @g_context_cnt, align 4
  %10 = icmp sgt i32 %9, 0
  br i1 %10, label %.lr.ph, label %._crit_edge

11:                                               ; preds = %2
  %12 = tail call ptr @__errno_location() #12
  store i32 %8, ptr %12, align 4
  tail call void (ptr, ...) @fatal_abort(ptr noundef nonnull @.str.1, ptr noundef nonnull @__func__.bb_g_job_validate2) #13
  unreachable

.lr.ph:                                           ; preds = %.preheader, %.lr.ph
  %indvars.iv = phi i64 [ %indvars.iv.next, %.lr.ph ], [ 0, %.preheader ]
  %.01317 = phi i32 [ %17, %.lr.ph ], [ 0, %.preheader ]
  %13 = load ptr, ptr @ops, align 8
  %14 = getelementptr inbounds nuw %struct.slurm_bb_ops, ptr %13, i64 %indvars.iv, i32 7
  %15 = load ptr, ptr %14, align 8
  %16 = tail call i32 %15(ptr noundef %0, ptr noundef %1) #11
  %17 = tail call i32 @llvm.smax.i32(i32 %.01317, i32 %16)
  %indvars.iv.next = add nuw nsw i64 %indvars.iv, 1
  %18 = load i32, ptr @g_context_cnt, align 4
  %19 = sext i32 %18 to i64
  %20 = icmp slt i64 %indvars.iv.next, %19
  br i1 %20, label %.lr.ph, label %._crit_edge, !llvm.loop !18

._crit_edge:                                      ; preds = %.lr.ph, %.preheader
  %.013.lcssa = phi i32 [ 0, %.preheader ], [ %17, %.lr.ph ]
  %21 = tail call i32 @pthread_mutex_unlock(ptr noundef nonnull @g_context_lock) #11
  %.not16 = icmp eq i32 %21, 0
  br i1 %.not16, label %24, label %22

22:                                               ; preds = %._crit_edge
  %23 = tail call ptr @__errno_location() #12
  store i32 %21, ptr %23, align 4
  tail call void (ptr, ...) @fatal_abort(ptr noundef nonnull @.str.8, ptr noundef nonnull @__func__.bb_g_job_validate2) #13
  unreachable

24:                                               ; preds = %._crit_edge
  %25 = call i32 @gettimeofday(ptr noundef nonnull %4, ptr noundef null) #11
  call void @slurm_diff_tv_str(ptr noundef nonnull %3, ptr noundef nonnull %4, ptr noundef nonnull %5, i32 noundef 20, ptr noundef nonnull @__func__.bb_g_job_validate2, i64 noundef 0, ptr noundef nonnull %6) #11
  call void @llvm.lifetime.end.p0(i64 8, ptr nonnull %6) #11
  call void @llvm.lifetime.end.p0(i64 20, ptr nonnull %5) #11
  call void @llvm.lifetime.end.p0(i64 16, ptr nonnull %4) #11
  call void @llvm.lifetime.end.p0(i64 16, ptr nonnull %3) #11
  ret i32 %.013.lcssa
}